; Function Attrs: mustprogress nounwind uwtable
define dso_local void @_ZN23cmUVProcessChainBuilderC2Ev(ptr noundef nonnull align 8 dereferenceable(96) %0) unnamed_addr #0 align 2 {
  br label %2

2:                                                ; preds = %2, %1
  %.idx.i = phi i64 [ 0, %1 ], [ %.add.i, %2 ]
  %.ptr.i = getelementptr inbounds nuw i8, ptr %0, i64 %.idx.i
  store i32 0, ptr %.ptr.i, align 8
  %3 = getelementptr inbounds nuw i8, ptr %.ptr.i, i64 4
  store i32 -1, ptr %3, align 4
  %.add.i = add nuw nsw i64 %.idx.i, 8
  %4 = icmp eq i64 %.add.i, 24
  br i1 %4, label %_ZNSt5arrayIN23cmUVProcessChainBuilder18StdioConfigurationELm3EEC2Ev.exit, label %2

_ZNSt5arrayIN23cmUVProcessChainBuilder18StdioConfigurationELm3EEC2Ev.exit: ; preds = %2
  %5 = getelementptr inbounds nuw i8, ptr %0, i64 24
  tail call void @llvm.memset.p0.i64(ptr noundef nonnull align 8 dereferenceable(24) %5, i8 0, i64 24, i1 false)
  %6 = getelementptr inbounds nuw i8, ptr %0, i64 48
  tail call void @_ZNSt7__cxx1112basic_stringIcSt11char_traitsIcESaIcEEC1Ev(ptr noundef nonnull align 8 dereferenceable(32) %6) #22
  %7 = getelementptr inbounds nuw i8, ptr %0, i64 80
  store i8 0, ptr %7, align 8
  %8 = getelementptr inbounds nuw i8, ptr %0, i64 88
  store ptr null, ptr %8, align 8
  ret void
}